; ModuleID = '54/253.c'
source_filename = "54/253.c"
target datalayout = "e-m:e-p270:32:32-p271:32:32-p272:64:64-i64:64-f80:128-n8:16:32:64-S128"
target triple = "x86_64-pc-linux-gnu"

@.str = private unnamed_addr constant [5 x i8] c"%d%d\00", align 1
@.str.1 = private unnamed_addr constant [4 x i8] c"%d\0A\00", align 1

; Function Attrs: noinline nounwind uwtable
define dso_local i32 @main() #0 {
  %1 = alloca i32, align 4
  %2 = alloca i32, align 4
  %3 = alloca i32, align 4
  %4 = alloca i32, align 4
  %5 = alloca i32, align 4
  %6 = alloca i32, align 4
  store i32 0, i32* %1, align 4
  store i32 0, i32* %4, align 4
  %7 = call i32 (i8*, ...) @__isoc99_scanf(i8* getelementptr inbounds ([5 x i8], [5 x i8]* @.str, i64 0, i64 0), i32* %2, i32* %3)
  store i32 0, i32* %4, align 4
  br label %8

8:                                                ; preds = %44, %0
  %9 = load i32, i32* %4, align 4
  %10 = icmp sle i32 %9, 100
  br i1 %10, label %11, label %47

11:                                               ; preds = %8
  %12 = load i32, i32* %4, align 4
  %13 = sitofp i32 %12 to double
  %14 = load i32, i32* %2, align 4
  %15 = sub nsw i32 %14, 1
  %16 = sitofp i32 %15 to double
  %17 = load i32, i32* %2, align 4
  %18 = sub nsw i32 %17, 1
  %19 = sitofp i32 %18 to double
  %20 = call double @pow(double %16, double %19) #3
  %21 = fmul double %13, %20
  %22 = load i32, i32* %3, align 4
  %23 = sitofp i32 %22 to double
  %24 = fcmp ole double %21, %23
  br i1 %24, label %25, label %43

25:                                               ; preds = %11
  %26 = load i32, i32* %3, align 4
  %27 = sitofp i32 %26 to double
  %28 = load i32, i32* %4, align 4
  %29 = add nsw i32 %28, 1
  %30 = sitofp i32 %29 to double
  %31 = load i32, i32* %2, align 4
  %32 = sub nsw i32 %31, 1
  %33 = sitofp i32 %32 to double
  %34 = load i32, i32* %2, align 4
  %35 = sub nsw i32 %34, 1
  %36 = sitofp i32 %35 to double
  %37 = call double @pow(double %33, double %36) #3
  %38 = fmul double %30, %37
  %39 = fcmp olt double %27, %38
  br i1 %39, label %40, label %43

40:                                               ; preds = %25
  %41 = load i32, i32* %4, align 4
  %42 = add nsw i32 %41, 1
  store i32 %42, i32* %5, align 4
  br label %43

43:                                               ; preds = %40, %25, %11
  br label %44

44:                                               ; preds = %43
  %45 = load i32, i32* %4, align 4
  %46 = add nsw i32 %45, 1
  store i32 %46, i32* %4, align 4
  br label %8

47:                                               ; preds = %8
  %48 = load i32, i32* %5, align 4
  %49 = sitofp i32 %48 to double
  %50 = load i32, i32* %2, align 4
  %51 = sitofp i32 %50 to double
  %52 = load i32, i32* %2, align 4
  %53 = sitofp i32 %52 to double
  %54 = call double @pow(double %51, double %53) #3
  %55 = fmul double %49, %54
  %56 = load i32, i32* %2, align 4
  %57 = load i32, i32* %3, align 4
  %58 = mul nsw i32 %56, %57
  %59 = sitofp i32 %58 to double
  %60 = fsub double %55, %59
  %61 = load i32, i32* %3, align 4
  %62 = sitofp i32 %61 to double
  %63 = fadd double %60, %62
  %64 = fptosi double %63 to i32
  store i32 %64, i32* %6, align 4
  %65 = load i32, i32* %6, align 4
  %66 = call i32 (i8*, ...) @printf(i8* getelementptr inbounds ([4 x i8], [4 x i8]* @.str.1, i64 0, i64 0), i32 %65)
  ret i32 0
}

declare dso_local i32 @__isoc99_scanf(i8*, ...) #1

; Function Attrs: nounwind
declare dso_local double @pow(double, double) #2

declare dso_local i32 @printf(i8*, ...) #1


!llvm.module.flags = !{!0}
!llvm.ident = !{!1}

!0 = !{i32 1, !"wchar_size", i32 4}
!1 = !{!"clang version 10.0.0-4ubuntu1 "}
