; ModuleID = 'source-C-CXX/53/253.c'
source_filename = "source-C-CXX/53/253.c"
target datalayout = "e-m:e-p270:32:32-p271:32:32-p272:64:64-i64:64-f80:128-n8:16:32:64-S128"
target triple = "x86_64-pc-linux-gnu"

@.str = private unnamed_addr constant [5 x i8] c"%d%d\00", align 1
@.str.1 = private unnamed_addr constant [4 x i8] c"%d\0A\00", align 1

; Function Attrs: nofree nounwind sspstrong uwtable
define dso_local i32 @main() local_unnamed_addr #0 {
  %1 = alloca i32, align 4
  %2 = alloca i32, align 4
  %3 = bitcast i32* %1 to i8*
  call void @llvm.lifetime.start.p0i8(i64 4, i8* nonnull %3) #4
  %4 = bitcast i32* %2 to i8*
  call void @llvm.lifetime.start.p0i8(i64 4, i8* nonnull %4) #4
  %5 = call i32 (i8*, ...) @__isoc99_scanf(i8* getelementptr inbounds ([5 x i8], [5 x i8]* @.str, i64 0, i64 0), i32* nonnull %1, i32* nonnull %2)
  br label %6

6:                                                ; preds = %0, %28
  %7 = phi i32 [ 0, %0 ], [ %18, %28 ]
  %8 = phi i32 [ undef, %0 ], [ %29, %28 ]
  %9 = sitofp i32 %7 to double
  %10 = load i32, i32* %1, align 4, !tbaa !5
  %11 = add nsw i32 %10, -1
  %12 = sitofp i32 %11 to double
  %13 = call double @pow(double %12, double %12) #4
  %14 = fmul double %13, %9
  %15 = load i32, i32* %2, align 4, !tbaa !5
  %16 = sitofp i32 %15 to double
  %17 = fcmp ugt double %14, %16
  %18 = add nuw nsw i32 %7, 1
  br i1 %17, label %28, label %19

19:                                               ; preds = %6
  %20 = sitofp i32 %18 to double
  %21 = load i32, i32* %1, align 4, !tbaa !5
  %22 = add nsw i32 %21, -1
  %23 = sitofp i32 %22 to double
  %24 = call double @pow(double %23, double %23) #4
  %25 = fmul double %24, %20
  %26 = fcmp ogt double %25, %16
  br i1 %26, label %27, label %28

27:                                               ; preds = %19
  br label %28

28:                                               ; preds = %6, %19, %27
  %29 = phi i32 [ %8, %19 ], [ %18, %27 ], [ %8, %6 ]
  %30 = icmp eq i32 %18, 101
  br i1 %30, label %31, label %6, !llvm.loop !9

31:                                               ; preds = %28
  %32 = sitofp i32 %29 to double
  %33 = load i32, i32* %1, align 4, !tbaa !5
  %34 = sitofp i32 %33 to double
  %35 = call double @pow(double %34, double %34) #4
  %36 = fmul double %35, %32
  %37 = load i32, i32* %1, align 4, !tbaa !5
  %38 = load i32, i32* %2, align 4, !tbaa !5
  %39 = mul nsw i32 %38, %37
  %40 = sitofp i32 %39 to double
  %41 = fsub double %36, %40
  %42 = sitofp i32 %38 to double
  %43 = fadd double %41, %42
  %44 = fptosi double %43 to i32
  %45 = call i32 (i8*, ...) @printf(i8* nonnull dereferenceable(1) getelementptr inbounds ([4 x i8], [4 x i8]* @.str.1, i64 0, i64 0), i32 %44)
  call void @llvm.lifetime.end.p0i8(i64 4, i8* nonnull %4) #4
  call void @llvm.lifetime.end.p0i8(i64 4, i8* nonnull %3) #4
  ret i32 0
}

; Function Attrs: argmemonly mustprogress nofree nosync nounwind willreturn
declare void @llvm.lifetime.start.p0i8(i64 immarg, i8* nocapture) #1

; Function Attrs: nofree nounwind
declare noundef i32 @__isoc99_scanf(i8* nocapture noundef readonly, ...) local_unnamed_addr #2

; Function Attrs: mustprogress nofree nounwind willreturn
declare double @pow(double, double) local_unnamed_addr #3

; Function Attrs: nofree nounwind
declare noundef i32 @printf(i8* nocapture noundef readonly, ...) local_unnamed_addr #2

; Function Attrs: argmemonly mustprogress nofree nosync nounwind willreturn
declare void @llvm.lifetime.end.p0i8(i64 immarg, i8* nocapture) #1


!llvm.module.flags = !{!0, !1, !2, !3}
!llvm.ident = !{!4}

!0 = !{i32 1, !"wchar_size", i32 4}
!1 = !{i32 7, !"PIC Level", i32 2}
!2 = !{i32 7, !"PIE Level", i32 2}
!3 = !{i32 7, !"uwtable", i32 1}
!4 = !{!"clang version 13.0.0"}
!5 = !{!6, !6, i64 0}
!6 = !{!"int", !7, i64 0}
!7 = !{!"omnipotent char", !8, i64 0}
!8 = !{!"Simple C/C++ TBAA"}
!9 = distinct !{!9, !10}
!10 = !{!"llvm.loop.mustprogress"}
